target datalayout = "e-m:e-p270:32:32-p271:32:32-p272:64:64-i64:64-i128:128-f80:128-n8:16:32:64-S128"
target triple = "x86_64-pc-linux-gnu"

@.str = private unnamed_addr constant [26 x i8] c"../openssl/test/pemtest.c\00", align 1
@.str.1 = private unnamed_addr constant [31 x i8] c"pemfile = test_get_argument(0)\00", align 1
@pemfile = internal global ptr null, align 8
@.str.2 = private unnamed_addr constant [9 x i8] c"test_b64\00", align 1
@.str.3 = private unnamed_addr constant [13 x i8] c"test_invalid\00", align 1
@.str.4 = private unnamed_addr constant [19 x i8] c"test_cert_key_cert\00", align 1
@.str.5 = private unnamed_addr constant [19 x i8] c"test_empty_payload\00", align 1
@.str.6 = private unnamed_addr constant [22 x i8] c"test_protected_params\00", align 1

; Function Attrs: nounwind uwtable
define dso_local i32 @setup_tests() #0 {
  %1 = alloca i32, align 4
  %2 = call ptr @test_get_argument(i64 noundef 0)
  store ptr %2, ptr @pemfile, align 8, !tbaa !4
  %3 = call i32 @test_ptr(ptr noundef @.str, i32 noundef 159, ptr noundef @.str.1, ptr noundef %2)
  %4 = icmp ne i32 %3, 0
  br i1 %4, label %6, label %5

5:                                                ; preds = %0
  store i32 0, ptr %1, align 4
  br label %7

6:                                                ; preds = %0
  call void @add_all_tests(ptr noundef @.str.2, ptr noundef @test_b64, i32 noundef 2, i32 noundef 1)
  call void @add_test(ptr noundef @.str.3, ptr noundef @test_invalid)
  call void @add_test(ptr noundef @.str.4, ptr noundef @test_cert_key_cert)
  call void @add_test(ptr noundef @.str.5, ptr noundef @test_empty_payload)
  call void @add_test(ptr noundef @.str.6, ptr noundef @test_protected_params)
  store i32 1, ptr %1, align 4
  br label %7

7:                                                ; preds = %6, %5
  %8 = load i32, ptr %1, align 4
  ret i32 %8
}