; Function Attrs: nounwind uwtable
define dso_local range(i32 0, 2) i32 @setup_tests() local_unnamed_addr #0 {
  %1 = tail call ptr @test_get_argument(i64 noundef 0) #4
  store ptr %1, ptr @pemfile, align 8, !tbaa !4
  %2 = tail call i32 @test_ptr(ptr noundef nonnull @.str, i32 noundef 159, ptr noundef nonnull @.str.1, ptr noundef %1) #4
  %.not = icmp eq i32 %2, 0
  br i1 %.not, label %4, label %3

3:                                                ; preds = %0
  tail call void @add_all_tests(ptr noundef nonnull @.str.2, ptr noundef nonnull @test_b64, i32 noundef 2, i32 noundef 1) #4
  tail call void @add_test(ptr noundef nonnull @.str.3, ptr noundef nonnull @test_invalid) #4
  tail call void @add_test(ptr noundef nonnull @.str.4, ptr noundef nonnull @test_cert_key_cert) #4
  tail call void @add_test(ptr noundef nonnull @.str.5, ptr noundef nonnull @test_empty_payload) #4
  tail call void @add_test(ptr noundef nonnull @.str.6, ptr noundef nonnull @test_protected_params) #4
  br label %4

4:                                                ; preds = %0, %3
  %.0 = phi i32 [ 1, %3 ], [ 0, %0 ]
  ret i32 %.0
}